; Function Attrs: mustprogress uwtable
define void @cvMultiplyAcc(ptr noundef %0, ptr noundef %1, ptr noundef %2, ptr noundef %3) local_unnamed_addr #0 personality ptr @__gxx_personality_v0 {
  %5 = alloca %"class.cv::Mat", align 8
  %6 = alloca %"class.cv::Mat", align 8
  %7 = alloca %"class.cv::Mat", align 8
  %8 = alloca %"class.cv::Mat", align 8
  %9 = alloca %"class.cv::Mat", align 8
  %10 = alloca %"class.cv::_InputArray", align 8
  %11 = alloca %"class.cv::_InputArray", align 8
  %12 = alloca %"class.cv::_InputOutputArray", align 8
  %13 = alloca %"class.cv::_InputArray", align 8
  call void @_ZN2cv10cvarrToMatEPKvbbiPNS_10AutoBufferIdLm136EEE(ptr dead_on_unwind nonnull writable sret(%"class.cv::Mat") align 8 %5, ptr noundef %0, i1 noundef zeroext false, i1 noundef zeroext true, i32 noundef 0, ptr noundef null)
  invoke void @_ZN2cv10cvarrToMatEPKvbbiPNS_10AutoBufferIdLm136EEE(ptr dead_on_unwind nonnull writable sret(%"class.cv::Mat") align 8 %6, ptr noundef %1, i1 noundef zeroext false, i1 noundef zeroext true, i32 noundef 0, ptr noundef null)
          to label %14 unwind label %20

14:                                               ; preds = %4
  invoke void @_ZN2cv10cvarrToMatEPKvbbiPNS_10AutoBufferIdLm136EEE(ptr dead_on_unwind nonnull writable sret(%"class.cv::Mat") align 8 %7, ptr noundef %2, i1 noundef zeroext false, i1 noundef zeroext true, i32 noundef 0, ptr noundef null)
          to label %15 unwind label %22

15:                                               ; preds = %14
  call void @_ZN2cv3MatC1Ev(ptr noundef nonnull align 8 dereferenceable(96) %8) #7
  %.not = icmp eq ptr %3, null
  br i1 %.not, label %28, label %16

16:                                               ; preds = %15
  invoke void @_ZN2cv10cvarrToMatEPKvbbiPNS_10AutoBufferIdLm136EEE(ptr dead_on_unwind nonnull writable sret(%"class.cv::Mat") align 8 %9, ptr noundef nonnull %3, i1 noundef zeroext false, i1 noundef zeroext true, i32 noundef 0, ptr noundef null)
          to label %17 unwind label %24

17:                                               ; preds = %16
  %18 = invoke noundef nonnull align 8 dereferenceable(96) ptr @_ZN2cv3MataSEOS0_(ptr noundef nonnull align 8 dereferenceable(96) %8, ptr noundef nonnull align 8 dereferenceable(96) %9)
          to label %19 unwind label %26

19:                                               ; preds = %17
  call void @_ZN2cv3MatD1Ev(ptr noundef nonnull align 8 dereferenceable(96) %9) #7
  br label %28

20:                                               ; preds = %4
  %21 = landingpad { ptr, i32 }
          cleanup
  br label %45

22:                                               ; preds = %14
  %23 = landingpad { ptr, i32 }
          cleanup
  br label %44

24:                                               ; preds = %16
  %25 = landingpad { ptr, i32 }
          cleanup
  br label %43

26:                                               ; preds = %17
  %27 = landingpad { ptr, i32 }
          cleanup
  call void @_ZN2cv3MatD1Ev(ptr noundef nonnull align 8 dereferenceable(96) %9) #7
  br label %43

28:                                               ; preds = %19, %15
  %29 = getelementptr inbounds i8, ptr %10, i64 16
  store i32 0, ptr %29, align 8
  %30 = getelementptr inbounds i8, ptr %10, i64 20
  store i32 0, ptr %30, align 4
  store i32 16842752, ptr %10, align 8
  %31 = getelementptr inbounds i8, ptr %10, i64 8
  store ptr %5, ptr %31, align 8
  %32 = getelementptr inbounds i8, ptr %11, i64 16
  store i32 0, ptr %32, align 8
  %33 = getelementptr inbounds i8, ptr %11, i64 20
  store i32 0, ptr %33, align 4
  store i32 16842752, ptr %11, align 8
  %34 = getelementptr inbounds i8, ptr %11, i64 8
  store ptr %6, ptr %34, align 8
  %35 = getelementptr inbounds i8, ptr %12, i64 8
  %36 = getelementptr inbounds i8, ptr %12, i64 16
  store i64 0, ptr %36, align 8
  store i32 50397184, ptr %12, align 8
  store ptr %7, ptr %35, align 8
  %37 = getelementptr inbounds i8, ptr %13, i64 16
  store i32 0, ptr %37, align 8
  %38 = getelementptr inbounds i8, ptr %13, i64 20
  store i32 0, ptr %38, align 4
  store i32 16842752, ptr %13, align 8
  %39 = getelementptr inbounds i8, ptr %13, i64 8
  store ptr %8, ptr %39, align 8
  invoke void @_ZN2cv17accumulateProductERKNS_11_InputArrayES2_RKNS_17_InputOutputArrayES2_(ptr noundef nonnull align 8 dereferenceable(24) %10, ptr noundef nonnull align 8 dereferenceable(24) %11, ptr noundef nonnull align 8 dereferenceable(24) %12, ptr noundef nonnull align 8 dereferenceable(24) %13)
          to label %40 unwind label %41

40:                                               ; preds = %28
  call void @_ZN2cv3MatD1Ev(ptr noundef nonnull align 8 dereferenceable(96) %8) #7
  call void @_ZN2cv3MatD1Ev(ptr noundef nonnull align 8 dereferenceable(96) %7) #7
  call void @_ZN2cv3MatD1Ev(ptr noundef nonnull align 8 dereferenceable(96) %6) #7
  call void @_ZN2cv3MatD1Ev(ptr noundef nonnull align 8 dereferenceable(96) %5) #7
  ret void

41:                                               ; preds = %28
  %42 = landingpad { ptr, i32 }
          cleanup
  br label %43

43:                                               ; preds = %41, %26, %24
  %.pn.pn.pn.pn = phi { ptr, i32 } [ %25, %24 ], [ %27, %26 ], [ %42, %41 ]
  call void @_ZN2cv3MatD1Ev(ptr noundef nonnull align 8 dereferenceable(96) %8) #7
  call void @_ZN2cv3MatD1Ev(ptr noundef nonnull align 8 dereferenceable(96) %7) #7
  br label %44

44:                                               ; preds = %43, %22
  %.pn.pn.pn.pn.pn = phi { ptr, i32 } [ %.pn.pn.pn.pn, %43 ], [ %23, %22 ]
  call void @_ZN2cv3MatD1Ev(ptr noundef nonnull align 8 dereferenceable(96) %6) #7
  br label %45

45:                                               ; preds = %44, %20
  %.pn.pn.pn.pn.pn.pn = phi { ptr, i32 } [ %.pn.pn.pn.pn.pn, %44 ], [ %21, %20 ]
  call void @_ZN2cv3MatD1Ev(ptr noundef nonnull align 8 dereferenceable(96) %5) #7
  resume { ptr, i32 } %.pn.pn.pn.pn.pn.pn
}